target datalayout = "e-m:e-p270:32:32-p271:32:32-p272:64:64-i64:64-i128:128-f80:128-n8:16:32:64-S128"
target triple = "x86_64-pc-linux-gnu"

%"class.llvm::dxil::ResourceInfo" = type { ptr, %"class.llvm::StringRef", i8, i32, %"struct.llvm::dxil::ResourceInfo::ResourceBinding", %union.anon, %union.anon.0, %"struct.llvm::dxil::ResourceInfo::MSInfo" }
%"class.llvm::StringRef" = type { ptr, i64 }
%"struct.llvm::dxil::ResourceInfo::ResourceBinding" = type { i32, i32, i32, i32 }
%union.anon = type { i32 }
%union.anon.0 = type { %"struct.llvm::dxil::ResourceInfo::StructInfo" }
%"struct.llvm::dxil::ResourceInfo::StructInfo" = type { i32, i32 }
%"struct.llvm::dxil::ResourceInfo::MSInfo" = type { i32 }

; Function Attrs: mustprogress nounwind uwtable
define linkonce_odr hidden void @_ZN4llvm4dxil12ResourceInfo10setSamplerENS0_11SamplerTypeE(ptr noundef nonnull align 8 dereferenceable(64) %0, i32 noundef %1) #0 comdat align 2 {
  %3 = alloca ptr, align 8
  %4 = alloca i32, align 4
  store ptr %0, ptr %3, align 8
  store i32 %1, ptr %4, align 4
  %5 = load ptr, ptr %3, align 8
  %6 = load i32, ptr %4, align 4
  %7 = getelementptr inbounds nuw %"class.llvm::dxil::ResourceInfo", ptr %5, i32 0, i32 5
  store i32 %6, ptr %7, align 8
  ret void
}

; Function Attrs: mustprogress nounwind uwtable
define linkonce_odr hidden void @_ZN4llvm4dxil12ResourceInfoC2ENS0_13ResourceClassENS0_12ResourceKindEPNS_5ValueENS_9StringRefE(ptr noundef nonnull align 8 dereferenceable(64) %0, i8 noundef zeroext %1, i32 noundef %2, ptr noundef %3, ptr %4, i64 %5) unnamed_addr #0 comdat align 2 {
  %7 = alloca %"class.llvm::StringRef", align 8
  %8 = alloca ptr, align 8
  %9 = alloca i8, align 1
  %10 = alloca i32, align 4
  %11 = alloca ptr, align 8
  %12 = getelementptr inbounds nuw { ptr, i64 }, ptr %7, i32 0, i32 0
  store ptr %4, ptr %12, align 8
  %13 = getelementptr inbounds nuw { ptr, i64 }, ptr %7, i32 0, i32 1
  store i64 %5, ptr %13, align 8
  store ptr %0, ptr %8, align 8
  store i8 %1, ptr %9, align 1
  store i32 %2, ptr %10, align 4
  store ptr %3, ptr %11, align 8
  %14 = load ptr, ptr %8, align 8
  %15 = getelementptr inbounds nuw %"class.llvm::dxil::ResourceInfo", ptr %14, i32 0, i32 0
  %16 = load ptr, ptr %11, align 8
  store ptr %16, ptr %15, align 8
  %17 = getelementptr inbounds nuw %"class.llvm::dxil::ResourceInfo", ptr %14, i32 0, i32 1
  call void @llvm.memcpy.p0.p0.i64(ptr align 8 %17, ptr align 8 %7, i64 16, i1 false)
  %18 = getelementptr inbounds nuw %"class.llvm::dxil::ResourceInfo", ptr %14, i32 0, i32 2
  %19 = load i8, ptr %9, align 1
  store i8 %19, ptr %18, align 8
  %20 = getelementptr inbounds nuw %"class.llvm::dxil::ResourceInfo", ptr %14, i32 0, i32 3
  %21 = load i32, ptr %10, align 4
  store i32 %21, ptr %20, align 4
  %22 = getelementptr inbounds nuw %"class.llvm::dxil::ResourceInfo", ptr %14, i32 0, i32 4
  %23 = getelementptr inbounds nuw %"struct.llvm::dxil::ResourceInfo::ResourceBinding", ptr %22, i32 0, i32 0
  store i32 0, ptr %23, align 8
  %24 = getelementptr inbounds nuw %"struct.llvm::dxil::ResourceInfo::ResourceBinding", ptr %22, i32 0, i32 1
  store i32 0, ptr %24, align 4
  %25 = getelementptr inbounds nuw %"struct.llvm::dxil::ResourceInfo::ResourceBinding", ptr %22, i32 0, i32 2
  store i32 0, ptr %25, align 8
  %26 = getelementptr inbounds nuw %"struct.llvm::dxil::ResourceInfo::ResourceBinding", ptr %22, i32 0, i32 3
  store i32 0, ptr %26, align 4
  ret void
}

; Function Attrs: mustprogress nounwind uwtable
define dso_local void @_ZN4llvm4dxil12ResourceInfo7SamplerEPNS_5ValueENS_9StringRefENS0_11SamplerTypeE(ptr dead_on_unwind noalias writable sret(%"class.llvm::dxil::ResourceInfo") align 8 %0, ptr noundef %1, ptr %2, i64 %3, i32 noundef %4) #0 align 2 {
  %6 = alloca %"class.llvm::StringRef", align 8
  %7 = alloca ptr, align 8
  %8 = alloca i32, align 4
  %9 = alloca %"class.llvm::StringRef", align 8
  %10 = getelementptr inbounds nuw { ptr, i64 }, ptr %6, i32 0, i32 0
  store ptr %2, ptr %10, align 8
  %11 = getelementptr inbounds nuw { ptr, i64 }, ptr %6, i32 0, i32 1
  store i64 %3, ptr %11, align 8
  store ptr %1, ptr %7, align 8
  store i32 %4, ptr %8, align 4
  %12 = load ptr, ptr %7, align 8
  call void @llvm.memcpy.p0.p0.i64(ptr align 8 %9, ptr align 8 %6, i64 16, i1 false)
  %13 = getelementptr inbounds nuw { ptr, i64 }, ptr %9, i32 0, i32 0
  %14 = load ptr, ptr %13, align 8
  %15 = getelementptr inbounds nuw { ptr, i64 }, ptr %9, i32 0, i32 1
  %16 = load i64, ptr %15, align 8
  call void @_ZN4llvm4dxil12ResourceInfoC2ENS0_13ResourceClassENS0_12ResourceKindEPNS_5ValueENS_9StringRefE(ptr noundef nonnull align 8 dereferenceable(64) %0, i8 noundef zeroext 3, i32 noundef 14, ptr noundef %12, ptr %14, i64 %16)
  %17 = load i32, ptr %8, align 4
  call void @_ZN4llvm4dxil12ResourceInfo10setSamplerENS0_11SamplerTypeE(ptr noundef nonnull align 8 dereferenceable(64) %0, i32 noundef %17)
  ret void
}