; Function Attrs: mustprogress nofree norecurse nosync nounwind willreturn memory(argmem: write) uwtable
define dso_local void @_ZN4llvm4dxil12ResourceInfo7SamplerEPNS_5ValueENS_9StringRefENS0_11SamplerTypeE(ptr dead_on_unwind noalias nocapture writable writeonly sret(%"class.llvm::dxil::ResourceInfo") align 8 %0, ptr noundef %1, ptr %2, i64 %3, i32 noundef %4) local_unnamed_addr #1 align 2 {
  store ptr %1, ptr %0, align 8
  %6 = getelementptr inbounds nuw i8, ptr %0, i64 8
  store ptr %2, ptr %6, align 8
  %.sroa.2.0..sroa_idx.i = getelementptr inbounds i8, ptr %0, i64 16
  store i64 %3, ptr %.sroa.2.0..sroa_idx.i, align 8
  %7 = getelementptr inbounds nuw i8, ptr %0, i64 24
  store i8 3, ptr %7, align 8
  %8 = getelementptr inbounds nuw i8, ptr %0, i64 28
  store i32 14, ptr %8, align 4
  %9 = getelementptr inbounds nuw i8, ptr %0, i64 32
  tail call void @llvm.memset.p0.i64(ptr noundef nonnull align 8 dereferenceable(16) %9, i8 0, i64 16, i1 false)
  %10 = getelementptr inbounds nuw i8, ptr %0, i64 48
  store i32 %4, ptr %10, align 8
  ret void
}